; Function Attrs: mustprogress uwtable
define hidden void @_ZN7datalog16rule_transformer15register_pluginEPNS0_6pluginE(ptr noundef nonnull align 8 dereferenceable(32) %0, ptr noundef %1) local_unnamed_addr #5 align 2 {
  %3 = getelementptr inbounds nuw i8, ptr %0, i64 24
  %4 = load ptr, ptr %3, align 8, !tbaa !17
  %5 = icmp eq ptr %4, null
  br i1 %5, label %12, label %6

6:                                                ; preds = %2
  %7 = getelementptr inbounds i8, ptr %4, i64 -4
  %8 = load i32, ptr %7, align 4, !tbaa !18
  %9 = getelementptr inbounds i8, ptr %4, i64 -8
  %10 = load i32, ptr %9, align 4, !tbaa !18
  %11 = icmp eq i32 %8, %10
  br i1 %11, label %12, label %_ZN6vectorIPN7datalog16rule_transformer6pluginELb0EjE9push_backERKS3_.exit

12:                                               ; preds = %6, %2
  tail call void @_ZN6vectorIPN7datalog16rule_transformer6pluginELb0EjE13expand_vectorEv(ptr noundef nonnull align 8 dereferenceable(8) %3)
  %.pre.i = load ptr, ptr %3, align 8, !tbaa !17
  %.phi.trans.insert.i = getelementptr inbounds i8, ptr %.pre.i, i64 -4
  %.pre2.i = load i32, ptr %.phi.trans.insert.i, align 4, !tbaa !18
  br label %_ZN6vectorIPN7datalog16rule_transformer6pluginELb0EjE9push_backERKS3_.exit

_ZN6vectorIPN7datalog16rule_transformer6pluginELb0EjE9push_backERKS3_.exit: ; preds = %6, %12
  %13 = phi i32 [ %.pre2.i, %12 ], [ %8, %6 ]
  %14 = phi ptr [ %.pre.i, %12 ], [ %4, %6 ]
  %15 = getelementptr inbounds i8, ptr %14, i64 -4
  %16 = zext i32 %13 to i64
  %17 = getelementptr inbounds nuw ptr, ptr %14, i64 %16
  store ptr %1, ptr %17, align 8, !tbaa !20
  %18 = add i32 %13, 1
  store i32 %18, ptr %15, align 4, !tbaa !18
  %19 = getelementptr inbounds nuw i8, ptr %1, i64 16
  store ptr %0, ptr %19, align 8, !tbaa !26
  %20 = getelementptr inbounds nuw i8, ptr %0, i64 16
  store i8 1, ptr %20, align 8, !tbaa !10
  ret void
}